target datalayout = "e-m:e-p270:32:32-p271:32:32-p272:64:64-i64:64-i128:128-f80:128-n8:16:32:64-S128"
target triple = "x86_64-pc-linux-gnu"

%struct.redisServer = type { i32, i64, ptr, ptr, ptr, i32, i32, i32, i32, i32, ptr, ptr, ptr, ptr, ptr, i32, i32, i32, i32, i64, i32, i32, i32, i32, ptr, i32, i32, [41 x i8], i32, i64, i32, i32, i32, ptr, ptr, i32, i32, i64, ptr, ptr, ptr, ptr, [2 x i32], i32, i32, i32, i32, i32, i32, [16 x ptr], i32, ptr, ptr, i32, [8 x %struct.connListener], i32, %struct.connListener, ptr, ptr, ptr, ptr, ptr, ptr, ptr, ptr, ptr, ptr, i32, ptr, i32, ptr, [3 x %struct.pause_event], [256 x i8], ptr, i64, i32, i32, [128 x i32], i32, i32, i64, i32, i32, i32, i32, i32, i64, i64, i64, i64, i64, i64, i64, i64, i64, i64, double, i64, i64, i64, i64, i64, i64, i64, i64, i64, i64, i64, i64, i64, i64, i64, i64, i64, i64, i64, i64, i64, double, i64, i64, i64, i64, i64, ptr, i64, i64, i64, %struct.malloc_stats, i64, i64, i64, i64, i64, i64, i64, i64, i64, i64, i64, i64, double, [4 x i64], i64, i64, i64, i64, [128 x i64], [128 x i64], i64, i64, [7 x %struct.anon], i64, i64, i64, i64, i64, i64, [4 x %struct.durationStats], i32, i32, i32, i32, i32, i32, i32, i32, i32, i32, i32, i32, i64, i32, i32, i32, i32, i64, i64, i32, i32, i32, i32, i32, ptr, [3 x %struct.clientBufferLimitsConfig], i32, i32, i32, ptr, i32, i32, i32, i32, i32, i32, ptr, ptr, i32, i32, i64, i64, i64, i64, i64, i32, i32, ptr, i32, i32, i64, i64, i64, i64, i64, i32, i32, i64, i32, i32, i32, i32, i32, i32, i32, i32, ptr, i32, i64, i64, i64, i64, i32, ptr, i32, ptr, i32, i32, i32, i64, i64, i64, i64, i32, i32, i32, i32, i32, i32, ptr, i32, i32, ptr, i32, i32, i32, [2 x i32], i32, %struct.redisOpArray, i32, ptr, i32, ptr, i32, i32, i32, i32, i32, i32, i32, [41 x i8], [41 x i8], i64, i64, i64, i64, i32, i32, ptr, i64, i64, %struct.replDataBuf, i64, i64, i32, i32, i32, i32, i32, i32, i32, i32, i32, i64, ptr, i64, ptr, ptr, ptr, i32, i32, ptr, ptr, i32, i32, i32, i64, i64, i64, i64, ptr, ptr, i32, ptr, i64, i32, i32, i32, i64, i32, i32, i32, i32, ptr, i32, i32, [41 x i8], i64, i32, ptr, i32, i32, i64, i64, i32, i32, i32, i32, i32, i64, [3 x i32], i32, i32, i32, [10 x i32], ptr, ptr, i32, i64, ptr, ptr, i32, i32, i32, i32, i64, i64, i64, i64, i64, i64, i64, i64, i64, i64, i32, i32, i64, i64, i32, i64, i64, i64, i64, i64, ptr, ptr, i32, ptr, i32, i32, i32, i32, i64, i64, ptr, ptr, i32, i32, i32, i32, i32, ptr, ptr, ptr, i32, i32, i32, i32, i32, i32, i32, i64, i32, i32, i64, i32, i32, i32, i32, i32, i32, i32, i64, ptr, ptr, i64, ptr, i32, %struct.aclInfo, i32, i64, i32, i32, i32, %struct.redisTLSContextConfig, ptr, ptr, ptr, ptr, ptr, i64, i32, ptr, i32, i32, i32, i64, i32, ptr }
%struct.connListener = type { [16 x i32], i32, ptr, i32, i32, ptr, ptr }
%struct.pause_event = type { i32, i64 }
%struct.malloc_stats = type { i64, i64, i64, i64, i64, i64, i64, i64, i64, i64, i64 }
%struct.anon = type { i64, i64, [16 x i64], i32 }
%struct.durationStats = type { i64, i64, i64 }
%struct.clientBufferLimitsConfig = type { i64, i64, i64 }
%struct.redisOpArray = type { ptr, i32, i32 }
%struct.replDataBuf = type { ptr, i64, i64, i64, i64 }
%struct.aclInfo = type { i64, i64, i64, i64 }
%struct.redisTLSContextConfig = type { ptr, ptr, ptr, ptr, ptr, ptr, ptr, ptr, ptr, ptr, ptr, ptr, i32, i32, i32, i32 }

@server = external global %struct.redisServer, align 8
@.str.50 = private unnamed_addr constant [3 x i8] c"id\00", align 1
@.str.51 = private unnamed_addr constant [5 x i8] c"port\00", align 1
@.str.52 = private unnamed_addr constant [9 x i8] c"tls-port\00", align 1
@.str.53 = private unnamed_addr constant [3 x i8] c"ip\00", align 1
@.str.54 = private unnamed_addr constant [9 x i8] c"endpoint\00", align 1
@.str.55 = private unnamed_addr constant [9 x i8] c"hostname\00", align 1
@.str.56 = private unnamed_addr constant [5 x i8] c"role\00", align 1
@.str.57 = private unnamed_addr constant [8 x i8] c"replica\00", align 1
@.str.58 = private unnamed_addr constant [7 x i8] c"master\00", align 1
@.str.59 = private unnamed_addr constant [19 x i8] c"replication-offset\00", align 1
@.str.60 = private unnamed_addr constant [7 x i8] c"health\00", align 1
@.str.61 = private unnamed_addr constant [5 x i8] c"fail\00", align 1
@.str.62 = private unnamed_addr constant [8 x i8] c"loading\00", align 1
@.str.63 = private unnamed_addr constant [7 x i8] c"online\00", align 1

; Function Attrs: nounwind uwtable
define dso_local void @addNodeDetailsToShardReply(ptr noundef %0, ptr noundef %1) #0 {
  %3 = alloca ptr, align 8
  %4 = alloca ptr, align 8
  %5 = alloca i32, align 4
  %6 = alloca ptr, align 8
  %7 = alloca ptr, align 8
  %8 = alloca i64, align 8
  %9 = alloca ptr, align 8
  store ptr %0, ptr %3, align 8, !tbaa !53
  store ptr %1, ptr %4, align 8, !tbaa !116
  call void @llvm.lifetime.start.p0(i64 4, ptr %5) #14
  store i32 0, ptr %5, align 4, !tbaa !10
  call void @llvm.lifetime.start.p0(i64 8, ptr %6) #14
  call void @llvm.lifetime.start.p0(i64 8, ptr %7) #14
  %10 = load ptr, ptr %3, align 8, !tbaa !53
  %11 = call ptr @addReplyDeferredLen(ptr noundef %10)
  store ptr %11, ptr %7, align 8, !tbaa !118
  %12 = load ptr, ptr %3, align 8, !tbaa !53
  call void @addReplyBulkCString(ptr noundef %12, ptr noundef @.str.50)
  %13 = load ptr, ptr %3, align 8, !tbaa !53
  %14 = load ptr, ptr %4, align 8, !tbaa !116
  %15 = call ptr @clusterNodeGetName(ptr noundef %14)
  call void @addReplyBulkCBuffer(ptr noundef %13, ptr noundef %15, i64 noundef 40)
  %16 = load i32, ptr %5, align 4, !tbaa !10
  %17 = add nsw i32 %16, 1
  store i32 %17, ptr %5, align 4, !tbaa !10
  %18 = load ptr, ptr %4, align 8, !tbaa !116
  %19 = call i32 @clusterNodeTcpPort(ptr noundef %18)
  %20 = icmp ne i32 %19, 0
  br i1 %20, label %21, label %29

21:                                               ; preds = %2
  %22 = load ptr, ptr %3, align 8, !tbaa !53
  call void @addReplyBulkCString(ptr noundef %22, ptr noundef @.str.51)
  %23 = load ptr, ptr %3, align 8, !tbaa !53
  %24 = load ptr, ptr %4, align 8, !tbaa !116
  %25 = call i32 @clusterNodeTcpPort(ptr noundef %24)
  %26 = sext i32 %25 to i64
  call void @addReplyLongLong(ptr noundef %23, i64 noundef %26)
  %27 = load i32, ptr %5, align 4, !tbaa !10
  %28 = add nsw i32 %27, 1
  store i32 %28, ptr %5, align 4, !tbaa !10
  br label %29

29:                                               ; preds = %21, %2
  %30 = load ptr, ptr %4, align 8, !tbaa !116
  %31 = call i32 @clusterNodeTlsPort(ptr noundef %30)
  %32 = icmp ne i32 %31, 0
  br i1 %32, label %33, label %41

33:                                               ; preds = %29
  %34 = load ptr, ptr %3, align 8, !tbaa !53
  call void @addReplyBulkCString(ptr noundef %34, ptr noundef @.str.52)
  %35 = load ptr, ptr %3, align 8, !tbaa !53
  %36 = load ptr, ptr %4, align 8, !tbaa !116
  %37 = call i32 @clusterNodeTlsPort(ptr noundef %36)
  %38 = sext i32 %37 to i64
  call void @addReplyLongLong(ptr noundef %35, i64 noundef %38)
  %39 = load i32, ptr %5, align 4, !tbaa !10
  %40 = add nsw i32 %39, 1
  store i32 %40, ptr %5, align 4, !tbaa !10
  br label %41

41:                                               ; preds = %33, %29
  %42 = load ptr, ptr %3, align 8, !tbaa !53
  call void @addReplyBulkCString(ptr noundef %42, ptr noundef @.str.53)
  %43 = load ptr, ptr %3, align 8, !tbaa !53
  %44 = load ptr, ptr %4, align 8, !tbaa !116
  %45 = call ptr @clusterNodeIp(ptr noundef %44)
  call void @addReplyBulkCString(ptr noundef %43, ptr noundef %45)
  %46 = load i32, ptr %5, align 4, !tbaa !10
  %47 = add nsw i32 %46, 1
  store i32 %47, ptr %5, align 4, !tbaa !10
  %48 = load ptr, ptr %3, align 8, !tbaa !53
  call void @addReplyBulkCString(ptr noundef %48, ptr noundef @.str.54)
  %49 = load ptr, ptr %3, align 8, !tbaa !53
  %50 = load ptr, ptr %4, align 8, !tbaa !116
  %51 = call ptr @clusterNodePreferredEndpoint(ptr noundef %50)
  call void @addReplyBulkCString(ptr noundef %49, ptr noundef %51)
  %52 = load i32, ptr %5, align 4, !tbaa !10
  %53 = add nsw i32 %52, 1
  store i32 %53, ptr %5, align 4, !tbaa !10
  %54 = load ptr, ptr %4, align 8, !tbaa !116
  %55 = call ptr @clusterNodeHostname(ptr noundef %54)
  store ptr %55, ptr %6, align 8, !tbaa !5
  %56 = load ptr, ptr %6, align 8, !tbaa !5
  %57 = icmp ne ptr %56, null
  br i1 %57, label %58, label %69

58:                                               ; preds = %41
  %59 = load ptr, ptr %6, align 8, !tbaa !5
  %60 = load i8, ptr %59, align 1, !tbaa !12
  %61 = sext i8 %60 to i32
  %62 = icmp ne i32 %61, 0
  br i1 %62, label %63, label %69

63:                                               ; preds = %58
  %64 = load ptr, ptr %3, align 8, !tbaa !53
  call void @addReplyBulkCString(ptr noundef %64, ptr noundef @.str.55)
  %65 = load ptr, ptr %3, align 8, !tbaa !53
  %66 = load ptr, ptr %6, align 8, !tbaa !5
  call void @addReplyBulkCString(ptr noundef %65, ptr noundef %66)
  %67 = load i32, ptr %5, align 4, !tbaa !10
  %68 = add nsw i32 %67, 1
  store i32 %68, ptr %5, align 4, !tbaa !10
  br label %69

69:                                               ; preds = %63, %58, %41
  call void @llvm.lifetime.start.p0(i64 8, ptr %8) #14
  %70 = load ptr, ptr %4, align 8, !tbaa !116
  %71 = call i32 @clusterNodeIsMyself(ptr noundef %70)
  %72 = icmp ne i32 %71, 0
  br i1 %72, label %73, label %83

73:                                               ; preds = %69
  %74 = load ptr, ptr %4, align 8, !tbaa !116
  %75 = call i32 @clusterNodeIsSlave(ptr noundef %74)
  %76 = icmp ne i32 %75, 0
  br i1 %76, label %77, label %79

77:                                               ; preds = %73
  %78 = call i64 @replicationGetSlaveOffset()
  br label %81

79:                                               ; preds = %73
  %80 = load i64, ptr getelementptr inbounds nuw (%struct.redisServer, ptr @server, i32 0, i32 271), align 8, !tbaa !119
  br label %81

81:                                               ; preds = %79, %77
  %82 = phi i64 [ %78, %77 ], [ %80, %79 ]
  store i64 %82, ptr %8, align 8, !tbaa !67
  br label %86

83:                                               ; preds = %69
  %84 = load ptr, ptr %4, align 8, !tbaa !116
  %85 = call i64 @clusterNodeReplOffset(ptr noundef %84)
  store i64 %85, ptr %8, align 8, !tbaa !67
  br label %86

86:                                               ; preds = %83, %81
  %87 = load ptr, ptr %3, align 8, !tbaa !53
  call void @addReplyBulkCString(ptr noundef %87, ptr noundef @.str.56)
  %88 = load ptr, ptr %3, align 8, !tbaa !53
  %89 = load ptr, ptr %4, align 8, !tbaa !116
  %90 = call i32 @clusterNodeIsSlave(ptr noundef %89)
  %91 = icmp ne i32 %90, 0
  %92 = select i1 %91, ptr @.str.57, ptr @.str.58
  call void @addReplyBulkCString(ptr noundef %88, ptr noundef %92)
  %93 = load i32, ptr %5, align 4, !tbaa !10
  %94 = add nsw i32 %93, 1
  store i32 %94, ptr %5, align 4, !tbaa !10
  %95 = load ptr, ptr %3, align 8, !tbaa !53
  call void @addReplyBulkCString(ptr noundef %95, ptr noundef @.str.59)
  %96 = load ptr, ptr %3, align 8, !tbaa !53
  %97 = load i64, ptr %8, align 8, !tbaa !67
  call void @addReplyLongLong(ptr noundef %96, i64 noundef %97)
  %98 = load i32, ptr %5, align 4, !tbaa !10
  %99 = add nsw i32 %98, 1
  store i32 %99, ptr %5, align 4, !tbaa !10
  %100 = load ptr, ptr %3, align 8, !tbaa !53
  call void @addReplyBulkCString(ptr noundef %100, ptr noundef @.str.60)
  call void @llvm.lifetime.start.p0(i64 8, ptr %9) #14
  store ptr null, ptr %9, align 8, !tbaa !5
  %101 = load ptr, ptr %4, align 8, !tbaa !116
  %102 = call i32 @clusterNodeIsFailing(ptr noundef %101)
  %103 = icmp ne i32 %102, 0
  br i1 %103, label %104, label %105

104:                                              ; preds = %86
  store ptr @.str.61, ptr %9, align 8, !tbaa !5
  br label %115

105:                                              ; preds = %86
  %106 = load ptr, ptr %4, align 8, !tbaa !116
  %107 = call i32 @clusterNodeIsSlave(ptr noundef %106)
  %108 = icmp ne i32 %107, 0
  br i1 %108, label %109, label %113

109:                                              ; preds = %105
  %110 = load i64, ptr %8, align 8, !tbaa !67
  %111 = icmp eq i64 %110, 0
  br i1 %111, label %112, label %113

112:                                              ; preds = %109
  store ptr @.str.62, ptr %9, align 8, !tbaa !5
  br label %114

113:                                              ; preds = %109, %105
  store ptr @.str.63, ptr %9, align 8, !tbaa !5
  br label %114

114:                                              ; preds = %113, %112
  br label %115

115:                                              ; preds = %114, %104
  %116 = load ptr, ptr %3, align 8, !tbaa !53
  %117 = load ptr, ptr %9, align 8, !tbaa !5
  call void @addReplyBulkCString(ptr noundef %116, ptr noundef %117)
  %118 = load i32, ptr %5, align 4, !tbaa !10
  %119 = add nsw i32 %118, 1
  store i32 %119, ptr %5, align 4, !tbaa !10
  %120 = load ptr, ptr %3, align 8, !tbaa !53
  %121 = load ptr, ptr %7, align 8, !tbaa !118
  %122 = load i32, ptr %5, align 4, !tbaa !10
  %123 = sext i32 %122 to i64
  call void @setDeferredMapLen(ptr noundef %120, ptr noundef %121, i64 noundef %123)
  call void @llvm.lifetime.end.p0(i64 8, ptr %9) #14
  call void @llvm.lifetime.end.p0(i64 8, ptr %8) #14
  call void @llvm.lifetime.end.p0(i64 8, ptr %7) #14
  call void @llvm.lifetime.end.p0(i64 8, ptr %6) #14
  call void @llvm.lifetime.end.p0(i64 4, ptr %5) #14
  ret void
}