; Function Attrs: nounwind uwtable
define dso_local void @addNodeDetailsToShardReply(ptr noundef %0, ptr noundef %1) local_unnamed_addr #0 {
  %3 = tail call ptr @addReplyDeferredLen(ptr noundef %0) #16
  tail call void @addReplyBulkCString(ptr noundef %0, ptr noundef nonnull @.str.50) #16
  %4 = tail call ptr @clusterNodeGetName(ptr noundef %1) #16
  tail call void @addReplyBulkCBuffer(ptr noundef %0, ptr noundef %4, i64 noundef 40) #16
  %5 = tail call i32 @clusterNodeTcpPort(ptr noundef %1) #16
  %.not = icmp eq i32 %5, 0
  br i1 %.not, label %9, label %6

6:                                                ; preds = %2
  tail call void @addReplyBulkCString(ptr noundef %0, ptr noundef nonnull @.str.51) #16
  %7 = tail call i32 @clusterNodeTcpPort(ptr noundef %1) #16
  %8 = sext i32 %7 to i64
  tail call void @addReplyLongLong(ptr noundef %0, i64 noundef %8) #16
  br label %9

9:                                                ; preds = %6, %2
  %.052 = phi i32 [ 2, %6 ], [ 1, %2 ]
  %10 = tail call i32 @clusterNodeTlsPort(ptr noundef %1) #16
  %.not54 = icmp eq i32 %10, 0
  br i1 %.not54, label %15, label %11

11:                                               ; preds = %9
  tail call void @addReplyBulkCString(ptr noundef %0, ptr noundef nonnull @.str.52) #16
  %12 = tail call i32 @clusterNodeTlsPort(ptr noundef %1) #16
  %13 = sext i32 %12 to i64
  tail call void @addReplyLongLong(ptr noundef %0, i64 noundef %13) #16
  %14 = add nuw nsw i32 %.052, 1
  br label %15

15:                                               ; preds = %11, %9
  %.1 = phi i32 [ %14, %11 ], [ %.052, %9 ]
  tail call void @addReplyBulkCString(ptr noundef %0, ptr noundef nonnull @.str.53) #16
  %16 = tail call ptr @clusterNodeIp(ptr noundef %1) #16
  tail call void @addReplyBulkCString(ptr noundef %0, ptr noundef %16) #16
  tail call void @addReplyBulkCString(ptr noundef %0, ptr noundef nonnull @.str.54) #16
  %17 = tail call ptr @clusterNodePreferredEndpoint(ptr noundef %1) #16
  tail call void @addReplyBulkCString(ptr noundef %0, ptr noundef %17) #16
  %18 = add nuw nsw i32 %.1, 2
  %19 = tail call ptr @clusterNodeHostname(ptr noundef %1) #16
  %.not55 = icmp eq ptr %19, null
  br i1 %.not55, label %24, label %20

20:                                               ; preds = %15
  %21 = load i8, ptr %19, align 1, !tbaa !5
  %.not56 = icmp eq i8 %21, 0
  br i1 %.not56, label %24, label %22

22:                                               ; preds = %20
  tail call void @addReplyBulkCString(ptr noundef %0, ptr noundef nonnull @.str.55) #16
  tail call void @addReplyBulkCString(ptr noundef %0, ptr noundef nonnull %19) #16
  %23 = add nuw nsw i32 %.1, 3
  br label %24

24:                                               ; preds = %22, %20, %15
  %.2 = phi i32 [ %23, %22 ], [ %18, %20 ], [ %18, %15 ]
  %25 = tail call i32 @clusterNodeIsMyself(ptr noundef %1) #16
  %.not57 = icmp eq i32 %25, 0
  br i1 %.not57, label %32, label %26

26:                                               ; preds = %24
  %27 = tail call i32 @clusterNodeIsSlave(ptr noundef %1) #16
  %.not58 = icmp eq i32 %27, 0
  br i1 %.not58, label %30, label %28

28:                                               ; preds = %26
  %29 = tail call i64 @replicationGetSlaveOffset() #16
  br label %34

30:                                               ; preds = %26
  %31 = load i64, ptr getelementptr inbounds nuw (i8, ptr @server, i64 7064), align 8, !tbaa !102
  br label %34

32:                                               ; preds = %24
  %33 = tail call i64 @clusterNodeReplOffset(ptr noundef %1) #16
  br label %34

34:                                               ; preds = %28, %30, %32
  %.051 = phi i64 [ %33, %32 ], [ %29, %28 ], [ %31, %30 ]
  tail call void @addReplyBulkCString(ptr noundef %0, ptr noundef nonnull @.str.56) #16
  %35 = tail call i32 @clusterNodeIsSlave(ptr noundef %1) #16
  %.not59 = icmp eq i32 %35, 0
  %36 = select i1 %.not59, ptr @.str.58, ptr @.str.57
  tail call void @addReplyBulkCString(ptr noundef %0, ptr noundef nonnull %36) #16
  tail call void @addReplyBulkCString(ptr noundef %0, ptr noundef nonnull @.str.59) #16
  tail call void @addReplyLongLong(ptr noundef %0, i64 noundef %.051) #16
  tail call void @addReplyBulkCString(ptr noundef %0, ptr noundef nonnull @.str.60) #16
  %37 = tail call i32 @clusterNodeIsFailing(ptr noundef %1) #16
  %.not60 = icmp eq i32 %37, 0
  br i1 %.not60, label %38, label %42

38:                                               ; preds = %34
  %39 = tail call i32 @clusterNodeIsSlave(ptr noundef %1) #16
  %40 = icmp ne i32 %39, 0
  %41 = icmp eq i64 %.051, 0
  %or.cond = select i1 %40, i1 %41, i1 false
  %.str.62..str.63 = select i1 %or.cond, ptr @.str.62, ptr @.str.63
  br label %42

42:                                               ; preds = %38, %34
  %.0 = phi ptr [ @.str.61, %34 ], [ %.str.62..str.63, %38 ]
  tail call void @addReplyBulkCString(ptr noundef %0, ptr noundef nonnull %.0) #16
  %43 = add nuw nsw i32 %.2, 3
  %44 = zext nneg i32 %43 to i64
  tail call void @setDeferredMapLen(ptr noundef %0, ptr noundef %3, i64 noundef %44) #16
  ret void
}